; Function Attrs: mustprogress uwtable
define hidden void @_ZN3sat4prob4flipEv(ptr noundef nonnull align 8 dereferenceable(816) %this) local_unnamed_addr #6 align 2 {
entry:
  %m_unsat.i = getelementptr inbounds i8, ptr %this, i64 720
  %m_rand.i = getelementptr inbounds i8, ptr %this, i64 744
  %0 = load i32, ptr %m_rand.i, align 8
  %mul.i.i = mul i32 %0, 214013
  %add.i.i = add i32 %mul.i.i, 2531011
  store i32 %add.i.i, ptr %m_rand.i, align 8
  %shr.i.i = lshr i32 %add.i.i, 16
  %and.i.i = and i32 %shr.i.i, 32767
  %1 = load i32, ptr %m_unsat.i, align 8
  %rem.i = urem i32 %and.i.i, %1
  %m_elems.i.i = getelementptr inbounds i8, ptr %this, i64 728
  %2 = load ptr, ptr %m_elems.i.i, align 8
  %idxprom.i.i.i = zext nneg i32 %rem.i to i64
  %arrayidx.i.i.i = getelementptr inbounds i32, ptr %2, i64 %idxprom.i.i.i
  %3 = load i32, ptr %arrayidx.i.i.i, align 4
  %m_clause_db.i.i = getelementptr inbounds i8, ptr %this, i64 640
  %4 = load ptr, ptr %m_clause_db.i.i, align 8
  %idxprom.i.i11.i = zext i32 %3 to i64
  %arrayidx.i.i12.i = getelementptr inbounds ptr, ptr %4, i64 %idxprom.i.i11.i
  %5 = load ptr, ptr %arrayidx.i.i12.i, align 8
  %m_lits.i.ptr.i = getelementptr inbounds i8, ptr %5, i64 20
  %m_size.i.i = getelementptr inbounds i8, ptr %5, i64 4
  %6 = load i32, ptr %m_size.i.i, align 4
  %idx.ext.i.i = zext i32 %6 to i64
  %add.ptr.i.idx.i = shl nuw nsw i64 %idx.ext.i.i, 2
  %7 = getelementptr i8, ptr %5, i64 %add.ptr.i.idx.i
  %add.ptr.i.ptr.i = getelementptr i8, ptr %7, i64 20
  %cmp.not29.i = icmp eq i32 %6, 0
  br i1 %cmp.not29.i, label %for.end.i, label %for.body.lr.ph.i

for.body.lr.ph.i:                                 ; preds = %entry
  %m_prob_break.i = getelementptr inbounds i8, ptr %this, i64 704
  %m_breaks.i = getelementptr inbounds i8, ptr %this, i64 752
  %m_probs.i = getelementptr inbounds i8, ptr %this, i64 712
  br label %for.body.i

for.body.i:                                       ; preds = %for.body.i, %for.body.lr.ph.i
  %indvars.iv.i = phi i64 [ 0, %for.body.lr.ph.i ], [ %indvars.iv.next.i, %for.body.i ]
  %sum_prob.032.i = phi double [ 0.000000e+00, %for.body.lr.ph.i ], [ %add.i, %for.body.i ]
  %__begin1.030.i = phi ptr [ %m_lits.i.ptr.i, %for.body.lr.ph.i ], [ %incdec.ptr.i, %for.body.i ]
  %8 = load i32, ptr %__begin1.030.i, align 4
  %shr.i14.i = lshr i32 %8, 1
  %9 = load ptr, ptr %m_breaks.i, align 8
  %idxprom.i.i = zext nneg i32 %shr.i14.i to i64
  %arrayidx.i.i = getelementptr inbounds i32, ptr %9, i64 %idxprom.i.i
  %10 = load i32, ptr %arrayidx.i.i, align 4
  %11 = load ptr, ptr %m_prob_break.i, align 8
  %idxprom.i15.i = zext i32 %10 to i64
  %arrayidx.i16.i = getelementptr inbounds double, ptr %11, i64 %idxprom.i15.i
  %12 = load double, ptr %arrayidx.i16.i, align 8
  %indvars.iv.next.i = add nuw nsw i64 %indvars.iv.i, 1
  %13 = load ptr, ptr %m_probs.i, align 8
  %arrayidx.i18.i = getelementptr inbounds double, ptr %13, i64 %indvars.iv.i
  store double %12, ptr %arrayidx.i18.i, align 8
  %add.i = fadd double %sum_prob.032.i, %12
  %incdec.ptr.i = getelementptr inbounds i8, ptr %__begin1.030.i, i64 4
  %cmp.not.i = icmp eq ptr %incdec.ptr.i, %add.ptr.i.ptr.i
  br i1 %cmp.not.i, label %for.end.loopexit.i, label %for.body.i

for.end.loopexit.i:                               ; preds = %for.body.i
  %14 = trunc i64 %indvars.iv.next.i to i32
  %.pre.i = load i32, ptr %m_rand.i, align 8
  br label %for.end.i

for.end.i:                                        ; preds = %for.end.loopexit.i, %entry
  %15 = phi i32 [ %add.i.i, %entry ], [ %.pre.i, %for.end.loopexit.i ]
  %i.0.lcssa.i = phi i32 [ 0, %entry ], [ %14, %for.end.loopexit.i ]
  %sum_prob.0.lcssa.i = phi double [ 0.000000e+00, %entry ], [ %add.i, %for.end.loopexit.i ]
  %mul.i19.i = mul i32 %15, 214013
  %add.i20.i = add i32 %mul.i19.i, 2531011
  store i32 %add.i20.i, ptr %m_rand.i, align 8
  %shr.i21.i = lshr i32 %add.i20.i, 16
  %and.i22.i = and i32 %shr.i21.i, 32767
  %conv.i = sitofp i32 %and.i22.i to double
  %div.i = fdiv double %conv.i, 3.276700e+04
  %mul.i = fmul double %sum_prob.0.lcssa.i, %div.i
  %m_probs17.i = getelementptr inbounds i8, ptr %this, i64 712
  %16 = load ptr, ptr %m_probs17.i, align 8
  br label %do.body.i

do.body.i:                                        ; preds = %do.body.i, %for.end.i
  %i.1.i = phi i32 [ %i.0.lcssa.i, %for.end.i ], [ %dec.i, %do.body.i ]
  %lim.0.i = phi double [ %mul.i, %for.end.i ], [ %sub.i, %do.body.i ]
  %dec.i = add i32 %i.1.i, -1
  %idxprom.i23.i = zext i32 %dec.i to i64
  %arrayidx.i24.i = getelementptr inbounds double, ptr %16, i64 %idxprom.i23.i
  %17 = load double, ptr %arrayidx.i24.i, align 8
  %sub.i = fsub double %lim.0.i, %17
  %cmp19.i = fcmp oge double %sub.i, 0.000000e+00
  %cmp20.i = icmp ne i32 %dec.i, 0
  %18 = and i1 %cmp20.i, %cmp19.i
  br i1 %18, label %do.body.i, label %_ZN3sat4prob8pick_varEv.exit, !llvm.loop !9

_ZN3sat4prob8pick_varEv.exit:                     ; preds = %do.body.i
  %arrayidx.i27.i = getelementptr inbounds [0 x %"class.sat::literal"], ptr %m_lits.i.ptr.i, i64 0, i64 %idxprom.i23.i
  %19 = load i32, ptr %arrayidx.i27.i, align 4
  %shr.i28.i = lshr i32 %19, 1
  tail call void @_ZN3sat4prob4flipEj(ptr noundef nonnull align 8 dereferenceable(816) %this, i32 noundef %shr.i28.i)
  %20 = load i32, ptr %m_unsat.i, align 8
  %m_best_min_unsat = getelementptr inbounds i8, ptr %this, i64 672
  %21 = load i32, ptr %m_best_min_unsat, align 8
  %cmp = icmp ult i32 %20, %21
  br i1 %cmp, label %if.then, label %if.end

if.then:                                          ; preds = %_ZN3sat4prob8pick_varEv.exit
  tail call void @_ZN3sat4prob16save_best_valuesEv(ptr noundef nonnull align 8 dereferenceable(816) %this)
  br label %if.end

if.end:                                           ; preds = %if.then, %_ZN3sat4prob8pick_varEv.exit
  ret void
}